; Function Attrs: mustprogress nofree norecurse nosync nounwind willreturn memory(readwrite, inaccessiblemem: none) uwtable
define internal void @_ZNK5faiss11IndexIVFPQR18search_preassignedElPKflPKlS2_PfPlbPKNS_19SearchParametersIVFEPNS_13IndexIVFStatsE.omp_outlined.omp.reduction.reduction_func(ptr noundef readonly captures(none) %0, ptr noundef readonly captures(none) %1) #21 {
  %3 = load ptr, ptr %1, align 8
  %4 = load ptr, ptr %0, align 8
  %5 = load i64, ptr %4, align 8, !tbaa !81
  %6 = load i64, ptr %3, align 8, !tbaa !81
  %7 = add i64 %6, %5
  store i64 %7, ptr %4, align 8, !tbaa !81
  ret void
}